target datalayout = "e-m:e-p270:32:32-p271:32:32-p272:64:64-i64:64-i128:128-f80:128-n8:16:32:64-S128"
target triple = "x86_64-pc-linux-gnu"

@Aig_ManRandom.m_z = internal thread_local global i32 -578006775, align 4
@Aig_ManRandom.m_w = internal thread_local global i32 -2120863760, align 4

; Function Attrs: nounwind uwtable
define i32 @Aig_ManRandom(i32 noundef %0) #0 {
  %2 = alloca i32, align 4
  store i32 %0, ptr %2, align 4, !tbaa !22
  %3 = load i32, ptr %2, align 4, !tbaa !22
  %4 = icmp ne i32 %3, 0
  br i1 %4, label %5, label %8

5:                                                ; preds = %1
  %6 = call align 4 ptr @llvm.threadlocal.address.p0(ptr align 4 @Aig_ManRandom.m_z)
  store i32 -578006775, ptr %6, align 4, !tbaa !22
  %7 = call align 4 ptr @llvm.threadlocal.address.p0(ptr align 4 @Aig_ManRandom.m_w)
  store i32 -2120863760, ptr %7, align 4, !tbaa !22
  br label %8

8:                                                ; preds = %5, %1
  %9 = call align 4 ptr @llvm.threadlocal.address.p0(ptr align 4 @Aig_ManRandom.m_z)
  %10 = load i32, ptr %9, align 4, !tbaa !22
  %11 = and i32 %10, 65535
  %12 = mul i32 36969, %11
  %13 = call align 4 ptr @llvm.threadlocal.address.p0(ptr align 4 @Aig_ManRandom.m_z)
  %14 = load i32, ptr %13, align 4, !tbaa !22
  %15 = lshr i32 %14, 16
  %16 = add i32 %12, %15
  %17 = call align 4 ptr @llvm.threadlocal.address.p0(ptr align 4 @Aig_ManRandom.m_z)
  store i32 %16, ptr %17, align 4, !tbaa !22
  %18 = call align 4 ptr @llvm.threadlocal.address.p0(ptr align 4 @Aig_ManRandom.m_w)
  %19 = load i32, ptr %18, align 4, !tbaa !22
  %20 = and i32 %19, 65535
  %21 = mul i32 18000, %20
  %22 = call align 4 ptr @llvm.threadlocal.address.p0(ptr align 4 @Aig_ManRandom.m_w)
  %23 = load i32, ptr %22, align 4, !tbaa !22
  %24 = lshr i32 %23, 16
  %25 = add i32 %21, %24
  %26 = call align 4 ptr @llvm.threadlocal.address.p0(ptr align 4 @Aig_ManRandom.m_w)
  store i32 %25, ptr %26, align 4, !tbaa !22
  %27 = call align 4 ptr @llvm.threadlocal.address.p0(ptr align 4 @Aig_ManRandom.m_z)
  %28 = load i32, ptr %27, align 4, !tbaa !22
  %29 = shl i32 %28, 16
  %30 = call align 4 ptr @llvm.threadlocal.address.p0(ptr align 4 @Aig_ManRandom.m_w)
  %31 = load i32, ptr %30, align 4, !tbaa !22
  %32 = add i32 %29, %31
  ret i32 %32
}

; Function Attrs: nounwind uwtable
define i64 @Aig_ManRandom64(i32 noundef %0) #0 {
  %2 = alloca i32, align 4
  %3 = alloca i64, align 8
  store i32 %0, ptr %2, align 4, !tbaa !22
  call void @llvm.lifetime.start.p0(i64 8, ptr %3) #10
  %4 = load i32, ptr %2, align 4, !tbaa !22
  %5 = call i32 @Aig_ManRandom(i32 noundef %4)
  %6 = zext i32 %5 to i64
  store i64 %6, ptr %3, align 8, !tbaa !100
  %7 = load i64, ptr %3, align 8, !tbaa !100
  %8 = call i32 @Aig_ManRandom(i32 noundef 0)
  %9 = zext i32 %8 to i64
  %10 = shl i64 %9, 32
  %11 = or i64 %7, %10
  call void @llvm.lifetime.end.p0(i64 8, ptr %3) #10
  ret i64 %11
}