; Function Attrs: mustprogress nofree norecurse nosync nounwind willreturn memory(readwrite, argmem: none, inaccessiblemem: none) uwtable
define i64 @Aig_ManRandom64(i32 noundef %0) local_unnamed_addr #16 {
  %.not.i = icmp eq i32 %0, 0
  %.pre.i = tail call align 4 ptr @llvm.threadlocal.address.p0(ptr align 4 @Aig_ManRandom.m_z)
  %.pre1.i = tail call align 4 ptr @llvm.threadlocal.address.p0(ptr align 4 @Aig_ManRandom.m_w)
  br i1 %.not.i, label %._crit_edge.i, label %2

._crit_edge.i:                                    ; preds = %1
  %.pre = load i32, ptr %.pre.i, align 4, !tbaa !30
  %.pre6 = load i32, ptr %.pre1.i, align 4, !tbaa !30
  br label %Aig_ManRandom.exit

2:                                                ; preds = %1
  store i32 -2120863760, ptr %.pre1.i, align 4, !tbaa !30
  br label %Aig_ManRandom.exit

Aig_ManRandom.exit:                               ; preds = %._crit_edge.i, %2
  %3 = phi i32 [ %.pre6, %._crit_edge.i ], [ -2120863760, %2 ]
  %4 = phi i32 [ %.pre, %._crit_edge.i ], [ -578006775, %2 ]
  %5 = and i32 %4, 65535
  %6 = mul nuw i32 %5, 36969
  %7 = lshr i32 %4, 16
  %8 = add nuw i32 %6, %7
  %9 = and i32 %3, 65535
  %10 = mul nuw nsw i32 %9, 18000
  %11 = lshr i32 %3, 16
  %12 = add nuw nsw i32 %10, %11
  store i32 %12, ptr %.pre1.i, align 4, !tbaa !30
  %13 = shl i32 %8, 16
  %14 = add i32 %12, %13
  %15 = zext i32 %14 to i64
  %16 = and i32 %8, 65535
  %17 = mul nuw i32 %16, 36969
  %18 = lshr i32 %8, 16
  %19 = add nuw i32 %17, %18
  store i32 %19, ptr %.pre.i, align 4, !tbaa !30
  %20 = load i32, ptr %.pre1.i, align 4, !tbaa !30
  %21 = and i32 %20, 65535
  %22 = mul nuw nsw i32 %21, 18000
  %23 = lshr i32 %20, 16
  %24 = add nuw nsw i32 %22, %23
  store i32 %24, ptr %.pre1.i, align 4, !tbaa !30
  %25 = shl i32 %19, 16
  %26 = add i32 %24, %25
  %27 = zext i32 %26 to i64
  %28 = shl nuw i64 %27, 32
  %29 = or disjoint i64 %28, %15
  ret i64 %29
}